target datalayout = "e-m:e-p270:32:32-p271:32:32-p272:64:64-i64:64-i128:128-f80:128-n8:16:32:64-S128"
target triple = "x86_64-pc-linux-gnu"

%struct.AVFilterContext = type { ptr, ptr, ptr, ptr, ptr, i32, ptr, ptr, i32, ptr, ptr, i32, i32, ptr, ptr, ptr, ptr, i32, ptr, i32, i32 }
%struct.CiescopeContext = type { ptr, i32, i32, i32, i32, i32, i32, float, float, i32, i32, [65536 x float], float, [3 x [3 x float]], [3 x [3 x float]], ptr, ptr }

; Function Attrs: nounwind uwtable
define internal void @rgb_to_xy(float noundef %0, float noundef %1, float noundef %2, ptr noundef %3, ptr noundef %4, ptr noundef %5, ptr noundef %6) #1 {
  %8 = alloca float, align 4
  %9 = alloca float, align 4
  %10 = alloca float, align 4
  %11 = alloca ptr, align 8
  %12 = alloca ptr, align 8
  %13 = alloca ptr, align 8
  %14 = alloca ptr, align 8
  %15 = alloca float, align 4
  store float %0, ptr %8, align 4, !tbaa !65
  store float %1, ptr %9, align 4, !tbaa !65
  store float %2, ptr %10, align 4, !tbaa !65
  store ptr %3, ptr %11, align 8, !tbaa !86
  store ptr %4, ptr %12, align 8, !tbaa !86
  store ptr %5, ptr %13, align 8, !tbaa !86
  store ptr %6, ptr %14, align 8, !tbaa !86
  call void @llvm.lifetime.start.p0(i64 4, ptr %15) #8
  %16 = load ptr, ptr %14, align 8, !tbaa !86
  %17 = getelementptr inbounds [3 x float], ptr %16, i64 0
  %18 = getelementptr inbounds [3 x float], ptr %17, i64 0, i64 0
  %19 = load float, ptr %18, align 4, !tbaa !65
  %20 = load float, ptr %8, align 4, !tbaa !65
  %21 = load ptr, ptr %14, align 8, !tbaa !86
  %22 = getelementptr inbounds [3 x float], ptr %21, i64 0
  %23 = getelementptr inbounds [3 x float], ptr %22, i64 0, i64 1
  %24 = load float, ptr %23, align 4, !tbaa !65
  %25 = load float, ptr %9, align 4, !tbaa !65
  %26 = fmul nsz float %24, %25
  %27 = call nsz float @llvm.fmuladd.f32(float %19, float %20, float %26)
  %28 = load ptr, ptr %14, align 8, !tbaa !86
  %29 = getelementptr inbounds [3 x float], ptr %28, i64 0
  %30 = getelementptr inbounds [3 x float], ptr %29, i64 0, i64 2
  %31 = load float, ptr %30, align 4, !tbaa !65
  %32 = load float, ptr %10, align 4, !tbaa !65
  %33 = call nsz float @llvm.fmuladd.f32(float %31, float %32, float %27)
  %34 = load ptr, ptr %11, align 8, !tbaa !86
  store float %33, ptr %34, align 4, !tbaa !65
  %35 = load ptr, ptr %14, align 8, !tbaa !86
  %36 = getelementptr inbounds [3 x float], ptr %35, i64 1
  %37 = getelementptr inbounds [3 x float], ptr %36, i64 0, i64 0
  %38 = load float, ptr %37, align 4, !tbaa !65
  %39 = load float, ptr %8, align 4, !tbaa !65
  %40 = load ptr, ptr %14, align 8, !tbaa !86
  %41 = getelementptr inbounds [3 x float], ptr %40, i64 1
  %42 = getelementptr inbounds [3 x float], ptr %41, i64 0, i64 1
  %43 = load float, ptr %42, align 4, !tbaa !65
  %44 = load float, ptr %9, align 4, !tbaa !65
  %45 = fmul nsz float %43, %44
  %46 = call nsz float @llvm.fmuladd.f32(float %38, float %39, float %45)
  %47 = load ptr, ptr %14, align 8, !tbaa !86
  %48 = getelementptr inbounds [3 x float], ptr %47, i64 1
  %49 = getelementptr inbounds [3 x float], ptr %48, i64 0, i64 2
  %50 = load float, ptr %49, align 4, !tbaa !65
  %51 = load float, ptr %10, align 4, !tbaa !65
  %52 = call nsz float @llvm.fmuladd.f32(float %50, float %51, float %46)
  %53 = load ptr, ptr %12, align 8, !tbaa !86
  store float %52, ptr %53, align 4, !tbaa !65
  %54 = load ptr, ptr %14, align 8, !tbaa !86
  %55 = getelementptr inbounds [3 x float], ptr %54, i64 2
  %56 = getelementptr inbounds [3 x float], ptr %55, i64 0, i64 0
  %57 = load float, ptr %56, align 4, !tbaa !65
  %58 = load float, ptr %8, align 4, !tbaa !65
  %59 = load ptr, ptr %14, align 8, !tbaa !86
  %60 = getelementptr inbounds [3 x float], ptr %59, i64 2
  %61 = getelementptr inbounds [3 x float], ptr %60, i64 0, i64 1
  %62 = load float, ptr %61, align 4, !tbaa !65
  %63 = load float, ptr %9, align 4, !tbaa !65
  %64 = fmul nsz float %62, %63
  %65 = call nsz float @llvm.fmuladd.f32(float %57, float %58, float %64)
  %66 = load ptr, ptr %14, align 8, !tbaa !86
  %67 = getelementptr inbounds [3 x float], ptr %66, i64 2
  %68 = getelementptr inbounds [3 x float], ptr %67, i64 0, i64 2
  %69 = load float, ptr %68, align 4, !tbaa !65
  %70 = load float, ptr %10, align 4, !tbaa !65
  %71 = call nsz float @llvm.fmuladd.f32(float %69, float %70, float %65)
  %72 = load ptr, ptr %13, align 8, !tbaa !86
  store float %71, ptr %72, align 4, !tbaa !65
  %73 = load ptr, ptr %11, align 8, !tbaa !86
  %74 = load float, ptr %73, align 4, !tbaa !65
  %75 = load ptr, ptr %12, align 8, !tbaa !86
  %76 = load float, ptr %75, align 4, !tbaa !65
  %77 = fadd nsz float %74, %76
  %78 = load ptr, ptr %13, align 8, !tbaa !86
  %79 = load float, ptr %78, align 4, !tbaa !65
  %80 = fadd nsz float %77, %79
  store float %80, ptr %15, align 4, !tbaa !65
  %81 = load float, ptr %15, align 4, !tbaa !65
  %82 = fdiv nsz float 1.000000e+00, %81
  store float %82, ptr %15, align 4, !tbaa !65
  %83 = load ptr, ptr %11, align 8, !tbaa !86
  %84 = load float, ptr %83, align 4, !tbaa !65
  %85 = load float, ptr %15, align 4, !tbaa !65
  %86 = fmul nsz float %84, %85
  %87 = load ptr, ptr %11, align 8, !tbaa !86
  store float %86, ptr %87, align 4, !tbaa !65
  %88 = load ptr, ptr %12, align 8, !tbaa !86
  %89 = load float, ptr %88, align 4, !tbaa !65
  %90 = load float, ptr %15, align 4, !tbaa !65
  %91 = fmul nsz float %89, %90
  %92 = load ptr, ptr %12, align 8, !tbaa !86
  store float %91, ptr %92, align 4, !tbaa !65
  call void @llvm.lifetime.end.p0(i64 4, ptr %15) #8
  ret void
}

; Function Attrs: nounwind uwtable
define internal void @filter_rgba64(ptr noundef %0, ptr noundef %1, i64 noundef %2, ptr noundef %3, ptr noundef %4, i32 noundef %5, i32 noundef %6) #1 {
  %8 = alloca ptr, align 8
  %9 = alloca ptr, align 8
  %10 = alloca i64, align 8
  %11 = alloca ptr, align 8
  %12 = alloca ptr, align 8
  %13 = alloca i32, align 4
  %14 = alloca i32, align 4
  %15 = alloca ptr, align 8
  %16 = alloca float, align 4
  %17 = alloca ptr, align 8
  %18 = alloca float, align 4
  %19 = alloca float, align 4
  %20 = alloca float, align 4
  %21 = alloca float, align 4
  store ptr %0, ptr %8, align 8, !tbaa !4
  store ptr %1, ptr %9, align 8, !tbaa !55
  store i64 %2, ptr %10, align 8, !tbaa !59
  store ptr %3, ptr %11, align 8, !tbaa !86
  store ptr %4, ptr %12, align 8, !tbaa !86
  store i32 %5, ptr %13, align 4, !tbaa !28
  store i32 %6, ptr %14, align 4, !tbaa !28
  call void @llvm.lifetime.start.p0(i64 8, ptr %15) #8
  %22 = load ptr, ptr %8, align 8, !tbaa !4
  %23 = getelementptr inbounds nuw %struct.AVFilterContext, ptr %22, i32 0, i32 9
  %24 = load ptr, ptr %23, align 8, !tbaa !9
  store ptr %24, ptr %15, align 8, !tbaa !22
  call void @llvm.lifetime.start.p0(i64 4, ptr %16) #8
  store float 0x3EF0001000000000, ptr %16, align 4, !tbaa !65
  call void @llvm.lifetime.start.p0(i64 8, ptr %17) #8
  %25 = load ptr, ptr %9, align 8, !tbaa !55
  %26 = load i64, ptr %10, align 8, !tbaa !59
  %27 = load i32, ptr %14, align 4, !tbaa !28
  %28 = sext i32 %27 to i64
  %29 = mul nsw i64 %26, %28
  %30 = getelementptr inbounds i8, ptr %25, i64 %29
  %31 = load i32, ptr %13, align 4, !tbaa !28
  %32 = mul nsw i32 %31, 8
  %33 = sext i32 %32 to i64
  %34 = getelementptr inbounds i8, ptr %30, i64 %33
  store ptr %34, ptr %17, align 8, !tbaa !60
  call void @llvm.lifetime.start.p0(i64 4, ptr %18) #8
  %35 = load ptr, ptr %17, align 8, !tbaa !60
  %36 = getelementptr inbounds i16, ptr %35, i64 0
  %37 = load i16, ptr %36, align 2, !tbaa !66
  %38 = zext i16 %37 to i32
  %39 = sitofp i32 %38 to float
  %40 = fadd nsz float %39, 0x3F847AE140000000
  %41 = fmul nsz float %40, 0x3EF0001000000000
  store float %41, ptr %18, align 4, !tbaa !65
  call void @llvm.lifetime.start.p0(i64 4, ptr %19) #8
  %42 = load ptr, ptr %17, align 8, !tbaa !60
  %43 = getelementptr inbounds i16, ptr %42, i64 1
  %44 = load i16, ptr %43, align 2, !tbaa !66
  %45 = zext i16 %44 to i32
  %46 = sitofp i32 %45 to float
  %47 = fadd nsz float %46, 0x3F847AE140000000
  %48 = fmul nsz float %47, 0x3EF0001000000000
  store float %48, ptr %19, align 4, !tbaa !65
  call void @llvm.lifetime.start.p0(i64 4, ptr %20) #8
  %49 = load ptr, ptr %17, align 8, !tbaa !60
  %50 = getelementptr inbounds i16, ptr %49, i64 2
  %51 = load i16, ptr %50, align 2, !tbaa !66
  %52 = zext i16 %51 to i32
  %53 = sitofp i32 %52 to float
  %54 = fadd nsz float %53, 0x3F847AE140000000
  %55 = fmul nsz float %54, 0x3EF0001000000000
  store float %55, ptr %20, align 4, !tbaa !65
  call void @llvm.lifetime.start.p0(i64 4, ptr %21) #8
  %56 = load float, ptr %18, align 4, !tbaa !65
  %57 = load float, ptr %19, align 4, !tbaa !65
  %58 = load float, ptr %20, align 4, !tbaa !65
  %59 = load ptr, ptr %11, align 8, !tbaa !86
  %60 = load ptr, ptr %12, align 8, !tbaa !86
  %61 = load ptr, ptr %15, align 8, !tbaa !22
  %62 = getelementptr inbounds nuw %struct.CiescopeContext, ptr %61, i32 0, i32 14
  %63 = getelementptr inbounds [3 x [3 x float]], ptr %62, i64 0, i64 0
  call void @rgb_to_xy(float noundef %56, float noundef %57, float noundef %58, ptr noundef %59, ptr noundef %60, ptr noundef %21, ptr noundef %63)
  call void @llvm.lifetime.end.p0(i64 4, ptr %21) #8
  call void @llvm.lifetime.end.p0(i64 4, ptr %20) #8
  call void @llvm.lifetime.end.p0(i64 4, ptr %19) #8
  call void @llvm.lifetime.end.p0(i64 4, ptr %18) #8
  call void @llvm.lifetime.end.p0(i64 8, ptr %17) #8
  call void @llvm.lifetime.end.p0(i64 4, ptr %16) #8
  call void @llvm.lifetime.end.p0(i64 8, ptr %15) #8
  ret void
}